target datalayout = "e-m:e-p270:32:32-p271:32:32-p272:64:64-i64:64-i128:128-f80:128-n8:16:32:64-S128"
target triple = "x86_64-pc-linux-gnu"

%struct._zend_accel_globals = type { i8, i8, i8, i8, i8, %struct._zend_accel_directives, ptr, ptr, [32 x i8], [32 x i8], i32, i8, i32, i8, i32, i64, i64, %struct._zend_array, i64, ptr, ptr, ptr, ptr, %struct._zend_string, [32768 x i8] }
%struct._zend_accel_directives = type { i64, i64, double, ptr, i64, i8, i8, i8, i8, i8, i8, i8, i8, i8, i8, i8, i64, i64, ptr, ptr, i64, i64, i64, i64, i64, ptr, ptr, ptr, i8, i8, i8, ptr, ptr }
%struct._zend_array = type { %struct._zend_refcounted_h, %union.anon.0, i32, %union.anon.1, i32, i32, i32, i32, i64, ptr }
%struct._zend_refcounted_h = type { i32, %union.anon }
%union.anon = type { i32 }
%union.anon.0 = type { i32 }
%union.anon.1 = type { ptr }
%struct._zend_string = type { %struct._zend_refcounted_h, i64, i64, [1 x i8] }
%struct._zval_struct = type { %union._zend_value, %union.anon.3, %union.anon.6 }
%union._zend_value = type { i64 }
%union.anon.3 = type { i32 }
%union.anon.6 = type { i32 }

@accel_globals = external global %struct._zend_accel_globals, align 8

; Function Attrs: nounwind uwtable
define hidden i32 @zend_shared_memdup_size(ptr noundef %0, i64 noundef %1) #0 {
  %3 = alloca ptr, align 8
  %4 = alloca i64, align 8
  %5 = alloca ptr, align 8
  %6 = alloca %struct._zval_struct, align 8
  %7 = alloca ptr, align 8
  %8 = alloca ptr, align 8
  %9 = alloca ptr, align 8
  %10 = alloca i64, align 8
  %11 = alloca ptr, align 8
  %12 = alloca i64, align 8
  %13 = alloca i32, align 4
  %14 = alloca ptr, align 8
  %15 = alloca i64, align 8
  %16 = alloca ptr, align 8
  %17 = alloca i64, align 8
  store ptr %0, ptr %14, align 8
  store i64 %1, ptr %15, align 8
  %18 = load ptr, ptr %14, align 8
  %19 = ptrtoint ptr %18 to i64
  store i64 %19, ptr %17, align 8
  %20 = load i64, ptr %17, align 8
  store i64 %20, ptr %12, align 8
  %21 = load i64, ptr %12, align 8
  %22 = lshr i64 %21, 3
  %23 = load i64, ptr %12, align 8
  %24 = shl i64 %23, 61
  %25 = or i64 %22, %24
  store i64 %25, ptr %17, align 8
  %26 = load i64, ptr %17, align 8
  store ptr getelementptr inbounds (%struct._zend_accel_globals, ptr @accel_globals, i32 0, i32 17), ptr %9, align 8
  store i64 %26, ptr %10, align 8
  %27 = load ptr, ptr %9, align 8
  %28 = load i64, ptr %10, align 8
  %29 = call ptr @zend_hash_index_find(ptr noundef %27, i64 noundef %28) #10
  store ptr %29, ptr %11, align 8
  %30 = load ptr, ptr %11, align 8
  %31 = icmp ne ptr %30, null
  br i1 %31, label %32, label %38

32:                                               ; preds = %2
  %33 = load ptr, ptr %11, align 8
  %34 = load ptr, ptr %33, align 8
  %35 = icmp ne ptr %34, null
  call void @llvm.assume(i1 %35)
  %36 = load ptr, ptr %11, align 8
  %37 = load ptr, ptr %36, align 8
  store ptr %37, ptr %8, align 8
  br label %39

38:                                               ; preds = %2
  store ptr null, ptr %8, align 8
  br label %39

39:                                               ; preds = %38, %32
  %40 = load ptr, ptr %8, align 8
  store ptr %40, ptr %16, align 8
  %41 = icmp ne ptr %40, null
  br i1 %41, label %42, label %43

42:                                               ; preds = %39
  store i32 0, ptr %13, align 4
  br label %60

43:                                               ; preds = %39
  %44 = load i64, ptr %17, align 8
  %45 = load ptr, ptr %14, align 8
  store ptr getelementptr inbounds (%struct._zend_accel_globals, ptr @accel_globals, i32 0, i32 17), ptr %3, align 8
  store i64 %44, ptr %4, align 8
  store ptr %45, ptr %5, align 8
  %46 = load ptr, ptr %5, align 8
  store ptr %46, ptr %6, align 8
  %47 = getelementptr inbounds %struct._zval_struct, ptr %6, i32 0, i32 1
  store i32 13, ptr %47, align 8
  %48 = load ptr, ptr %3, align 8
  %49 = load i64, ptr %4, align 8
  %50 = call ptr @zend_hash_index_add_new(ptr noundef %48, i64 noundef %49, ptr noundef %6) #10
  store ptr %50, ptr %7, align 8
  %51 = load ptr, ptr %7, align 8
  %52 = icmp ne ptr %51, null
  br i1 %52, label %53, label %54

53:                                               ; preds = %43
  br label %55

54:                                               ; preds = %43
  br label %55

55:                                               ; preds = %54, %53
  %56 = load i64, ptr %15, align 8
  %57 = add i64 %56, 7
  %58 = and i64 %57, -8
  %59 = trunc i64 %58 to i32
  store i32 %59, ptr %13, align 4
  br label %60

60:                                               ; preds = %55, %42
  %61 = load i32, ptr %13, align 4
  ret i32 %61
}