; Function Attrs: nounwind uwtable
define hidden noundef i32 @zend_shared_memdup_size(ptr noundef %0, i64 noundef %1) local_unnamed_addr #0 {
  %3 = alloca %struct._zval_struct, align 8
  %4 = ptrtoint ptr %0 to i64
  %5 = tail call i64 @llvm.fshl.i64(i64 %4, i64 %4, i64 61)
  %6 = tail call ptr @zend_hash_index_find(ptr noundef nonnull getelementptr inbounds (%struct._zend_accel_globals, ptr @accel_globals, i64 0, i32 17), i64 noundef %5) #20
  %.not = icmp eq ptr %6, null
  br i1 %.not, label %7, label %13

7:                                                ; preds = %2
  store ptr %0, ptr %3, align 8
  %8 = getelementptr inbounds i8, ptr %3, i64 8
  store i32 13, ptr %8, align 8
  %9 = call ptr @zend_hash_index_add_new(ptr noundef nonnull getelementptr inbounds (%struct._zend_accel_globals, ptr @accel_globals, i64 0, i32 17), i64 noundef %5, ptr noundef nonnull %3) #20
  %10 = trunc i64 %1 to i32
  %11 = add i32 %10, 7
  %12 = and i32 %11, -8
  br label %13

13:                                               ; preds = %2, %7
  %.017 = phi i32 [ %12, %7 ], [ 0, %2 ]
  ret i32 %.017
}